target datalayout = "e-m:e-p270:32:32-p271:32:32-p272:64:64-i64:64-i128:128-f80:128-n8:16:32:64-S128"
target triple = "x86_64-pc-linux-gnu"

%struct.__jmp_buf_tag = type { [8 x i64], i32, %struct.__sigset_t }
%struct.__sigset_t = type { [16 x i64] }

@stderr = external global ptr, align 8
@.str.32 = private unnamed_addr constant [111 x i8] c"generated/home/dtcxzyw/WorkSpace/Projects/compilers/llvm-opt-benchmark/bench/glog/glog/src/logging_unittest.cc\00", align 1
@.str.35 = private unnamed_addr constant [6 x i8] c"false\00", align 1
@_ZN6googleL14g_called_abortE = internal global i8 0, align 1
@_ZN6google19g_logging_fail_funcE = external global ptr, align 8
@_ZN6googleL9g_jmp_bufE = internal global [1 x %struct.__jmp_buf_tag] zeroinitializer, align 16
@.str.47 = private unnamed_addr constant [30 x i8] c"Function didn't die (%s): %s\0A\00", align 1
@.str.52 = private unnamed_addr constant [20 x i8] c"Check %s failed: %s\00", align 1
@.str.53 = private unnamed_addr constant [10 x i8] c"failure 1\00", align 1
@.str.54 = private unnamed_addr constant [35 x i8] c"RAW: Check false failed: failure 1\00", align 1
@.str.55 = private unnamed_addr constant [30 x i8] c"RAW_CHECK(false, \22failure 1\22)\00", align 1

; Function Attrs: mustprogress uwtable
define hidden void @_ZN26DeathRawCHECK_logging_Test8TestBodyEv(ptr noundef nonnull align 8 dereferenceable(16) %0) unnamed_addr #4 align 2 {
  %2 = alloca ptr, align 8
  %3 = alloca ptr, align 8
  store ptr %0, ptr %2, align 8
  br label %4

4:                                                ; preds = %1
  store i8 0, ptr @_ZN6googleL14g_called_abortE, align 1
  %5 = load ptr, ptr @_ZN6google19g_logging_fail_funcE, align 8
  store ptr %5, ptr %3, align 8
  store ptr @_ZN6googleL11CalledAbortEv, ptr @_ZN6google19g_logging_fail_funcE, align 8
  %6 = call i32 @_setjmp(ptr noundef @_ZN6googleL9g_jmp_bufE) #31
  %7 = icmp ne i32 %6, 0
  br i1 %7, label %13, label %8

8:                                                ; preds = %4
  br label %9

9:                                                ; preds = %8
  br label %10

10:                                               ; preds = %9
  call void (i32, ptr, i32, ptr, ...) @_ZN6google8RawLog__ENS_11LogSeverityEPKciS2_z(i32 noundef 3, ptr noundef @.str.32, i32 noundef 550, ptr noundef @.str.52, ptr noundef @.str.35, ptr noundef @.str.53)
  br label %11

11:                                               ; preds = %10
  br label %12

12:                                               ; preds = %11
  br label %13

13:                                               ; preds = %12, %4
  %14 = load ptr, ptr %3, align 8
  store ptr %14, ptr @_ZN6google19g_logging_fail_funcE, align 8
  %15 = load i8, ptr @_ZN6googleL14g_called_abortE, align 1
  %16 = trunc i8 %15 to i1
  br i1 %16, label %20, label %17

17:                                               ; preds = %13
  %18 = load ptr, ptr @stderr, align 8
  %19 = call i32 (ptr, ptr, ...) @fprintf(ptr noundef %18, ptr noundef @.str.47, ptr noundef @.str.54, ptr noundef @.str.55) #3
  call void @exit(i32 noundef 1) #24
  unreachable

20:                                               ; preds = %13
  br label %21

21:                                               ; preds = %20
  ret void
}