; Function Attrs: mustprogress uwtable
define hidden void @_ZN26DeathRawCHECK_logging_Test8TestBodyEv(ptr nocapture nonnull readnone align 8 %0) unnamed_addr #3 align 2 {
  store i1 false, ptr @_ZN6googleL14g_called_abortE, align 1
  %2 = load ptr, ptr @_ZN6google19g_logging_fail_funcE, align 8
  store ptr @_ZN6googleL11CalledAbortEv, ptr @_ZN6google19g_logging_fail_funcE, align 8
  %3 = call i32 @_setjmp(ptr noundef nonnull @_ZN6googleL9g_jmp_bufE) #42
  %.not = icmp eq i32 %3, 0
  br i1 %.not, label %4, label %5

4:                                                ; preds = %1
  call void (i32, ptr, i32, ptr, ...) @_ZN6google8RawLog__ENS_11LogSeverityEPKciS2_z(i32 noundef 3, ptr noundef nonnull @.str.32, i32 noundef 550, ptr noundef nonnull @.str.52, ptr noundef nonnull @.str.35, ptr noundef nonnull @.str.53)
  br label %5

5:                                                ; preds = %4, %1
  store ptr %2, ptr @_ZN6google19g_logging_fail_funcE, align 8
  %.b1 = load i1, ptr @_ZN6googleL14g_called_abortE, align 1
  br i1 %.b1, label %9, label %6

6:                                                ; preds = %5
  %7 = load ptr, ptr @stderr, align 8
  %8 = call i32 (ptr, ptr, ...) @fprintf(ptr noundef %7, ptr noundef nonnull @.str.47, ptr noundef nonnull @.str.54, ptr noundef nonnull @.str.55) #43
  call void @exit(i32 noundef 1) #37
  unreachable

9:                                                ; preds = %5
  ret void
}